target datalayout = "e-m:e-p270:32:32-p271:32:32-p272:64:64-i64:64-i128:128-f80:128-n8:16:32:64-S128"
target triple = "x86_64-pc-linux-gnu"

%struct.jv = type { i8, i8, i16, i32, %union.anon }
%union.anon = type { ptr }
%struct.tm = type { i32, i32, i32, i32, i32, i32, i32, i32, i32, i64, ptr }

; Function Attrs: nounwind uwtable
define internal { i64, ptr } @tm2jv(ptr noundef %0) #0 {
  %2 = alloca %struct.jv, align 8
  %3 = alloca ptr, align 8
  %4 = alloca %struct.jv, align 8
  %5 = alloca %struct.jv, align 8
  %6 = alloca %struct.jv, align 8
  %7 = alloca %struct.jv, align 8
  %8 = alloca %struct.jv, align 8
  %9 = alloca %struct.jv, align 8
  %10 = alloca %struct.jv, align 8
  %11 = alloca %struct.jv, align 8
  %12 = alloca %struct.jv, align 8
  %13 = alloca %struct.jv, align 8
  %14 = alloca %struct.jv, align 8
  %15 = alloca %struct.jv, align 8
  %16 = alloca %struct.jv, align 8
  %17 = alloca %struct.jv, align 8
  %18 = alloca %struct.jv, align 8
  %19 = alloca %struct.jv, align 8
  store ptr %0, ptr %3, align 8, !tbaa !84
  %20 = call { i64, ptr } @jv_array()
  %21 = getelementptr inbounds nuw { i64, ptr }, ptr %11, i32 0, i32 0
  %22 = extractvalue { i64, ptr } %20, 0
  store i64 %22, ptr %21, align 8
  %23 = getelementptr inbounds nuw { i64, ptr }, ptr %11, i32 0, i32 1
  %24 = extractvalue { i64, ptr } %20, 1
  store ptr %24, ptr %23, align 8
  %25 = load ptr, ptr %3, align 8, !tbaa !84
  %26 = getelementptr inbounds nuw %struct.tm, ptr %25, i32 0, i32 5
  %27 = load i32, ptr %26, align 4, !tbaa !94
  %28 = add nsw i32 %27, 1900
  %29 = sitofp i32 %28 to double
  %30 = call { i64, ptr } @jv_number(double noundef %29)
  %31 = getelementptr inbounds nuw { i64, ptr }, ptr %12, i32 0, i32 0
  %32 = extractvalue { i64, ptr } %30, 0
  store i64 %32, ptr %31, align 8
  %33 = getelementptr inbounds nuw { i64, ptr }, ptr %12, i32 0, i32 1
  %34 = extractvalue { i64, ptr } %30, 1
  store ptr %34, ptr %33, align 8
  %35 = getelementptr inbounds nuw { i64, ptr }, ptr %11, i32 0, i32 0
  %36 = load i64, ptr %35, align 8
  %37 = getelementptr inbounds nuw { i64, ptr }, ptr %11, i32 0, i32 1
  %38 = load ptr, ptr %37, align 8
  %39 = getelementptr inbounds nuw { i64, ptr }, ptr %12, i32 0, i32 0
  %40 = load i64, ptr %39, align 8
  %41 = getelementptr inbounds nuw { i64, ptr }, ptr %12, i32 0, i32 1
  %42 = load ptr, ptr %41, align 8
  %43 = call { i64, ptr } @jv_array_append(i64 %36, ptr %38, i64 %40, ptr %42)
  %44 = getelementptr inbounds nuw { i64, ptr }, ptr %10, i32 0, i32 0
  %45 = extractvalue { i64, ptr } %43, 0
  store i64 %45, ptr %44, align 8
  %46 = getelementptr inbounds nuw { i64, ptr }, ptr %10, i32 0, i32 1
  %47 = extractvalue { i64, ptr } %43, 1
  store ptr %47, ptr %46, align 8
  %48 = load ptr, ptr %3, align 8, !tbaa !84
  %49 = getelementptr inbounds nuw %struct.tm, ptr %48, i32 0, i32 4
  %50 = load i32, ptr %49, align 8, !tbaa !83
  %51 = sitofp i32 %50 to double
  %52 = call { i64, ptr } @jv_number(double noundef %51)
  %53 = getelementptr inbounds nuw { i64, ptr }, ptr %13, i32 0, i32 0
  %54 = extractvalue { i64, ptr } %52, 0
  store i64 %54, ptr %53, align 8
  %55 = getelementptr inbounds nuw { i64, ptr }, ptr %13, i32 0, i32 1
  %56 = extractvalue { i64, ptr } %52, 1
  store ptr %56, ptr %55, align 8
  %57 = getelementptr inbounds nuw { i64, ptr }, ptr %10, i32 0, i32 0
  %58 = load i64, ptr %57, align 8
  %59 = getelementptr inbounds nuw { i64, ptr }, ptr %10, i32 0, i32 1
  %60 = load ptr, ptr %59, align 8
  %61 = getelementptr inbounds nuw { i64, ptr }, ptr %13, i32 0, i32 0
  %62 = load i64, ptr %61, align 8
  %63 = getelementptr inbounds nuw { i64, ptr }, ptr %13, i32 0, i32 1
  %64 = load ptr, ptr %63, align 8
  %65 = call { i64, ptr } @jv_array_append(i64 %58, ptr %60, i64 %62, ptr %64)
  %66 = getelementptr inbounds nuw { i64, ptr }, ptr %9, i32 0, i32 0
  %67 = extractvalue { i64, ptr } %65, 0
  store i64 %67, ptr %66, align 8
  %68 = getelementptr inbounds nuw { i64, ptr }, ptr %9, i32 0, i32 1
  %69 = extractvalue { i64, ptr } %65, 1
  store ptr %69, ptr %68, align 8
  %70 = load ptr, ptr %3, align 8, !tbaa !84
  %71 = getelementptr inbounds nuw %struct.tm, ptr %70, i32 0, i32 3
  %72 = load i32, ptr %71, align 4, !tbaa !82
  %73 = sitofp i32 %72 to double
  %74 = call { i64, ptr } @jv_number(double noundef %73)
  %75 = getelementptr inbounds nuw { i64, ptr }, ptr %14, i32 0, i32 0
  %76 = extractvalue { i64, ptr } %74, 0
  store i64 %76, ptr %75, align 8
  %77 = getelementptr inbounds nuw { i64, ptr }, ptr %14, i32 0, i32 1
  %78 = extractvalue { i64, ptr } %74, 1
  store ptr %78, ptr %77, align 8
  %79 = getelementptr inbounds nuw { i64, ptr }, ptr %9, i32 0, i32 0
  %80 = load i64, ptr %79, align 8
  %81 = getelementptr inbounds nuw { i64, ptr }, ptr %9, i32 0, i32 1
  %82 = load ptr, ptr %81, align 8
  %83 = getelementptr inbounds nuw { i64, ptr }, ptr %14, i32 0, i32 0
  %84 = load i64, ptr %83, align 8
  %85 = getelementptr inbounds nuw { i64, ptr }, ptr %14, i32 0, i32 1
  %86 = load ptr, ptr %85, align 8
  %87 = call { i64, ptr } @jv_array_append(i64 %80, ptr %82, i64 %84, ptr %86)
  %88 = getelementptr inbounds nuw { i64, ptr }, ptr %8, i32 0, i32 0
  %89 = extractvalue { i64, ptr } %87, 0
  store i64 %89, ptr %88, align 8
  %90 = getelementptr inbounds nuw { i64, ptr }, ptr %8, i32 0, i32 1
  %91 = extractvalue { i64, ptr } %87, 1
  store ptr %91, ptr %90, align 8
  %92 = load ptr, ptr %3, align 8, !tbaa !84
  %93 = getelementptr inbounds nuw %struct.tm, ptr %92, i32 0, i32 2
  %94 = load i32, ptr %93, align 8, !tbaa !95
  %95 = sitofp i32 %94 to double
  %96 = call { i64, ptr } @jv_number(double noundef %95)
  %97 = getelementptr inbounds nuw { i64, ptr }, ptr %15, i32 0, i32 0
  %98 = extractvalue { i64, ptr } %96, 0
  store i64 %98, ptr %97, align 8
  %99 = getelementptr inbounds nuw { i64, ptr }, ptr %15, i32 0, i32 1
  %100 = extractvalue { i64, ptr } %96, 1
  store ptr %100, ptr %99, align 8
  %101 = getelementptr inbounds nuw { i64, ptr }, ptr %8, i32 0, i32 0
  %102 = load i64, ptr %101, align 8
  %103 = getelementptr inbounds nuw { i64, ptr }, ptr %8, i32 0, i32 1
  %104 = load ptr, ptr %103, align 8
  %105 = getelementptr inbounds nuw { i64, ptr }, ptr %15, i32 0, i32 0
  %106 = load i64, ptr %105, align 8
  %107 = getelementptr inbounds nuw { i64, ptr }, ptr %15, i32 0, i32 1
  %108 = load ptr, ptr %107, align 8
  %109 = call { i64, ptr } @jv_array_append(i64 %102, ptr %104, i64 %106, ptr %108)
  %110 = getelementptr inbounds nuw { i64, ptr }, ptr %7, i32 0, i32 0
  %111 = extractvalue { i64, ptr } %109, 0
  store i64 %111, ptr %110, align 8
  %112 = getelementptr inbounds nuw { i64, ptr }, ptr %7, i32 0, i32 1
  %113 = extractvalue { i64, ptr } %109, 1
  store ptr %113, ptr %112, align 8
  %114 = load ptr, ptr %3, align 8, !tbaa !84
  %115 = getelementptr inbounds nuw %struct.tm, ptr %114, i32 0, i32 1
  %116 = load i32, ptr %115, align 4, !tbaa !96
  %117 = sitofp i32 %116 to double
  %118 = call { i64, ptr } @jv_number(double noundef %117)
  %119 = getelementptr inbounds nuw { i64, ptr }, ptr %16, i32 0, i32 0
  %120 = extractvalue { i64, ptr } %118, 0
  store i64 %120, ptr %119, align 8
  %121 = getelementptr inbounds nuw { i64, ptr }, ptr %16, i32 0, i32 1
  %122 = extractvalue { i64, ptr } %118, 1
  store ptr %122, ptr %121, align 8
  %123 = getelementptr inbounds nuw { i64, ptr }, ptr %7, i32 0, i32 0
  %124 = load i64, ptr %123, align 8
  %125 = getelementptr inbounds nuw { i64, ptr }, ptr %7, i32 0, i32 1
  %126 = load ptr, ptr %125, align 8
  %127 = getelementptr inbounds nuw { i64, ptr }, ptr %16, i32 0, i32 0
  %128 = load i64, ptr %127, align 8
  %129 = getelementptr inbounds nuw { i64, ptr }, ptr %16, i32 0, i32 1
  %130 = load ptr, ptr %129, align 8
  %131 = call { i64, ptr } @jv_array_append(i64 %124, ptr %126, i64 %128, ptr %130)
  %132 = getelementptr inbounds nuw { i64, ptr }, ptr %6, i32 0, i32 0
  %133 = extractvalue { i64, ptr } %131, 0
  store i64 %133, ptr %132, align 8
  %134 = getelementptr inbounds nuw { i64, ptr }, ptr %6, i32 0, i32 1
  %135 = extractvalue { i64, ptr } %131, 1
  store ptr %135, ptr %134, align 8
  %136 = load ptr, ptr %3, align 8, !tbaa !84
  %137 = getelementptr inbounds nuw %struct.tm, ptr %136, i32 0, i32 0
  %138 = load i32, ptr %137, align 8, !tbaa !97
  %139 = sitofp i32 %138 to double
  %140 = call { i64, ptr } @jv_number(double noundef %139)
  %141 = getelementptr inbounds nuw { i64, ptr }, ptr %17, i32 0, i32 0
  %142 = extractvalue { i64, ptr } %140, 0
  store i64 %142, ptr %141, align 8
  %143 = getelementptr inbounds nuw { i64, ptr }, ptr %17, i32 0, i32 1
  %144 = extractvalue { i64, ptr } %140, 1
  store ptr %144, ptr %143, align 8
  %145 = getelementptr inbounds nuw { i64, ptr }, ptr %6, i32 0, i32 0
  %146 = load i64, ptr %145, align 8
  %147 = getelementptr inbounds nuw { i64, ptr }, ptr %6, i32 0, i32 1
  %148 = load ptr, ptr %147, align 8
  %149 = getelementptr inbounds nuw { i64, ptr }, ptr %17, i32 0, i32 0
  %150 = load i64, ptr %149, align 8
  %151 = getelementptr inbounds nuw { i64, ptr }, ptr %17, i32 0, i32 1
  %152 = load ptr, ptr %151, align 8
  %153 = call { i64, ptr } @jv_array_append(i64 %146, ptr %148, i64 %150, ptr %152)
  %154 = getelementptr inbounds nuw { i64, ptr }, ptr %5, i32 0, i32 0
  %155 = extractvalue { i64, ptr } %153, 0
  store i64 %155, ptr %154, align 8
  %156 = getelementptr inbounds nuw { i64, ptr }, ptr %5, i32 0, i32 1
  %157 = extractvalue { i64, ptr } %153, 1
  store ptr %157, ptr %156, align 8
  %158 = load ptr, ptr %3, align 8, !tbaa !84
  %159 = getelementptr inbounds nuw %struct.tm, ptr %158, i32 0, i32 6
  %160 = load i32, ptr %159, align 8, !tbaa !77
  %161 = sitofp i32 %160 to double
  %162 = call { i64, ptr } @jv_number(double noundef %161)
  %163 = getelementptr inbounds nuw { i64, ptr }, ptr %18, i32 0, i32 0
  %164 = extractvalue { i64, ptr } %162, 0
  store i64 %164, ptr %163, align 8
  %165 = getelementptr inbounds nuw { i64, ptr }, ptr %18, i32 0, i32 1
  %166 = extractvalue { i64, ptr } %162, 1
  store ptr %166, ptr %165, align 8
  %167 = getelementptr inbounds nuw { i64, ptr }, ptr %5, i32 0, i32 0
  %168 = load i64, ptr %167, align 8
  %169 = getelementptr inbounds nuw { i64, ptr }, ptr %5, i32 0, i32 1
  %170 = load ptr, ptr %169, align 8
  %171 = getelementptr inbounds nuw { i64, ptr }, ptr %18, i32 0, i32 0
  %172 = load i64, ptr %171, align 8
  %173 = getelementptr inbounds nuw { i64, ptr }, ptr %18, i32 0, i32 1
  %174 = load ptr, ptr %173, align 8
  %175 = call { i64, ptr } @jv_array_append(i64 %168, ptr %170, i64 %172, ptr %174)
  %176 = getelementptr inbounds nuw { i64, ptr }, ptr %4, i32 0, i32 0
  %177 = extractvalue { i64, ptr } %175, 0
  store i64 %177, ptr %176, align 8
  %178 = getelementptr inbounds nuw { i64, ptr }, ptr %4, i32 0, i32 1
  %179 = extractvalue { i64, ptr } %175, 1
  store ptr %179, ptr %178, align 8
  %180 = load ptr, ptr %3, align 8, !tbaa !84
  %181 = getelementptr inbounds nuw %struct.tm, ptr %180, i32 0, i32 7
  %182 = load i32, ptr %181, align 4, !tbaa !79
  %183 = sitofp i32 %182 to double
  %184 = call { i64, ptr } @jv_number(double noundef %183)
  %185 = getelementptr inbounds nuw { i64, ptr }, ptr %19, i32 0, i32 0
  %186 = extractvalue { i64, ptr } %184, 0
  store i64 %186, ptr %185, align 8
  %187 = getelementptr inbounds nuw { i64, ptr }, ptr %19, i32 0, i32 1
  %188 = extractvalue { i64, ptr } %184, 1
  store ptr %188, ptr %187, align 8
  %189 = getelementptr inbounds nuw { i64, ptr }, ptr %4, i32 0, i32 0
  %190 = load i64, ptr %189, align 8
  %191 = getelementptr inbounds nuw { i64, ptr }, ptr %4, i32 0, i32 1
  %192 = load ptr, ptr %191, align 8
  %193 = getelementptr inbounds nuw { i64, ptr }, ptr %19, i32 0, i32 0
  %194 = load i64, ptr %193, align 8
  %195 = getelementptr inbounds nuw { i64, ptr }, ptr %19, i32 0, i32 1
  %196 = load ptr, ptr %195, align 8
  %197 = call { i64, ptr } @jv_array_append(i64 %190, ptr %192, i64 %194, ptr %196)
  %198 = getelementptr inbounds nuw { i64, ptr }, ptr %2, i32 0, i32 0
  %199 = extractvalue { i64, ptr } %197, 0
  store i64 %199, ptr %198, align 8
  %200 = getelementptr inbounds nuw { i64, ptr }, ptr %2, i32 0, i32 1
  %201 = extractvalue { i64, ptr } %197, 1
  store ptr %201, ptr %200, align 8
  %202 = load { i64, ptr }, ptr %2, align 8
  ret { i64, ptr } %202
}