; Function Attrs: nounwind uwtable
define internal fastcc { i64, ptr } @tm2jv(ptr noundef nonnull readonly captures(none) %0) unnamed_addr #0 {
  %2 = tail call { i64, ptr } @jv_array() #14
  %3 = extractvalue { i64, ptr } %2, 0
  %4 = extractvalue { i64, ptr } %2, 1
  %5 = getelementptr inbounds nuw i8, ptr %0, i64 20
  %6 = load i32, ptr %5, align 4, !tbaa !65
  %7 = add nsw i32 %6, 1900
  %8 = sitofp i32 %7 to double
  %9 = tail call { i64, ptr } @jv_number(double noundef %8) #14
  %10 = extractvalue { i64, ptr } %9, 0
  %11 = extractvalue { i64, ptr } %9, 1
  %12 = tail call { i64, ptr } @jv_array_append(i64 %3, ptr %4, i64 %10, ptr %11) #14
  %13 = extractvalue { i64, ptr } %12, 0
  %14 = extractvalue { i64, ptr } %12, 1
  %15 = getelementptr inbounds nuw i8, ptr %0, i64 16
  %16 = load i32, ptr %15, align 8, !tbaa !74
  %17 = sitofp i32 %16 to double
  %18 = tail call { i64, ptr } @jv_number(double noundef %17) #14
  %19 = extractvalue { i64, ptr } %18, 0
  %20 = extractvalue { i64, ptr } %18, 1
  %21 = tail call { i64, ptr } @jv_array_append(i64 %13, ptr %14, i64 %19, ptr %20) #14
  %22 = extractvalue { i64, ptr } %21, 0
  %23 = extractvalue { i64, ptr } %21, 1
  %24 = getelementptr inbounds nuw i8, ptr %0, i64 12
  %25 = load i32, ptr %24, align 4, !tbaa !75
  %26 = sitofp i32 %25 to double
  %27 = tail call { i64, ptr } @jv_number(double noundef %26) #14
  %28 = extractvalue { i64, ptr } %27, 0
  %29 = extractvalue { i64, ptr } %27, 1
  %30 = tail call { i64, ptr } @jv_array_append(i64 %22, ptr %23, i64 %28, ptr %29) #14
  %31 = extractvalue { i64, ptr } %30, 0
  %32 = extractvalue { i64, ptr } %30, 1
  %33 = getelementptr inbounds nuw i8, ptr %0, i64 8
  %34 = load i32, ptr %33, align 8, !tbaa !76
  %35 = sitofp i32 %34 to double
  %36 = tail call { i64, ptr } @jv_number(double noundef %35) #14
  %37 = extractvalue { i64, ptr } %36, 0
  %38 = extractvalue { i64, ptr } %36, 1
  %39 = tail call { i64, ptr } @jv_array_append(i64 %31, ptr %32, i64 %37, ptr %38) #14
  %40 = extractvalue { i64, ptr } %39, 0
  %41 = extractvalue { i64, ptr } %39, 1
  %42 = getelementptr inbounds nuw i8, ptr %0, i64 4
  %43 = load i32, ptr %42, align 4, !tbaa !77
  %44 = sitofp i32 %43 to double
  %45 = tail call { i64, ptr } @jv_number(double noundef %44) #14
  %46 = extractvalue { i64, ptr } %45, 0
  %47 = extractvalue { i64, ptr } %45, 1
  %48 = tail call { i64, ptr } @jv_array_append(i64 %40, ptr %41, i64 %46, ptr %47) #14
  %49 = extractvalue { i64, ptr } %48, 0
  %50 = extractvalue { i64, ptr } %48, 1
  %51 = load i32, ptr %0, align 8, !tbaa !78
  %52 = sitofp i32 %51 to double
  %53 = tail call { i64, ptr } @jv_number(double noundef %52) #14
  %54 = extractvalue { i64, ptr } %53, 0
  %55 = extractvalue { i64, ptr } %53, 1
  %56 = tail call { i64, ptr } @jv_array_append(i64 %49, ptr %50, i64 %54, ptr %55) #14
  %57 = extractvalue { i64, ptr } %56, 0
  %58 = extractvalue { i64, ptr } %56, 1
  %59 = getelementptr inbounds nuw i8, ptr %0, i64 24
  %60 = load i32, ptr %59, align 8, !tbaa !57
  %61 = sitofp i32 %60 to double
  %62 = tail call { i64, ptr } @jv_number(double noundef %61) #14
  %63 = extractvalue { i64, ptr } %62, 0
  %64 = extractvalue { i64, ptr } %62, 1
  %65 = tail call { i64, ptr } @jv_array_append(i64 %57, ptr %58, i64 %63, ptr %64) #14
  %66 = extractvalue { i64, ptr } %65, 0
  %67 = extractvalue { i64, ptr } %65, 1
  %68 = getelementptr inbounds nuw i8, ptr %0, i64 28
  %69 = load i32, ptr %68, align 4, !tbaa !60
  %70 = sitofp i32 %69 to double
  %71 = tail call { i64, ptr } @jv_number(double noundef %70) #14
  %72 = extractvalue { i64, ptr } %71, 0
  %73 = extractvalue { i64, ptr } %71, 1
  %74 = tail call { i64, ptr } @jv_array_append(i64 %66, ptr %67, i64 %72, ptr %73) #14
  ret { i64, ptr } %74
}